target datalayout = "e-m:e-p270:32:32-p271:32:32-p272:64:64-i64:64-i128:128-f80:128-n8:16:32:64-S128"
target triple = "x86_64-pc-linux-gnu"

%struct.luaL_Stream = type { ptr, ptr }

@.str.16 = private unnamed_addr constant [6 x i8] c"FILE*\00", align 1
@.str.35 = private unnamed_addr constant [12 x i8] c"closed file\00", align 1
@.str.36 = private unnamed_addr constant [5 x i8] c"file\00", align 1

; Function Attrs: nounwind uwtable
define internal i32 @io_type(ptr noundef %0) #0 {
  %2 = alloca ptr, align 8
  %3 = alloca ptr, align 8
  store ptr %0, ptr %2, align 8, !tbaa !4
  call void @llvm.lifetime.start.p0(i64 8, ptr %3) #8
  %4 = load ptr, ptr %2, align 8, !tbaa !4
  call void @luaL_checkany(ptr noundef %4, i32 noundef 1)
  %5 = load ptr, ptr %2, align 8, !tbaa !4
  %6 = call ptr @luaL_testudata(ptr noundef %5, i32 noundef 1, ptr noundef @.str.16)
  store ptr %6, ptr %3, align 8, !tbaa !13
  %7 = load ptr, ptr %3, align 8, !tbaa !13
  %8 = icmp eq ptr %7, null
  br i1 %8, label %9, label %11

9:                                                ; preds = %1
  %10 = load ptr, ptr %2, align 8, !tbaa !4
  call void @lua_pushnil(ptr noundef %10)
  br label %23

11:                                               ; preds = %1
  %12 = load ptr, ptr %3, align 8, !tbaa !13
  %13 = getelementptr inbounds nuw %struct.luaL_Stream, ptr %12, i32 0, i32 1
  %14 = load ptr, ptr %13, align 8, !tbaa !17
  %15 = icmp eq ptr %14, null
  br i1 %15, label %16, label %19

16:                                               ; preds = %11
  %17 = load ptr, ptr %2, align 8, !tbaa !4
  %18 = call ptr @lua_pushstring(ptr noundef %17, ptr noundef @.str.35)
  br label %22

19:                                               ; preds = %11
  %20 = load ptr, ptr %2, align 8, !tbaa !4
  %21 = call ptr @lua_pushstring(ptr noundef %20, ptr noundef @.str.36)
  br label %22

22:                                               ; preds = %19, %16
  br label %23

23:                                               ; preds = %22, %9
  call void @llvm.lifetime.end.p0(i64 8, ptr %3) #8
  ret i32 1
}