; Function Attrs: nounwind uwtable
define internal noundef i32 @io_type(ptr noundef %0) #0 {
  tail call void @luaL_checkany(ptr noundef %0, i32 noundef 1) #9
  %2 = tail call ptr @luaL_testudata(ptr noundef %0, i32 noundef 1, ptr noundef nonnull @.str.16) #9
  %3 = icmp eq ptr %2, null
  br i1 %3, label %4, label %5

4:                                                ; preds = %1
  tail call void @lua_pushnil(ptr noundef %0) #9
  br label %13

5:                                                ; preds = %1
  %6 = getelementptr inbounds nuw i8, ptr %2, i64 8
  %7 = load ptr, ptr %6, align 8, !tbaa !9
  %8 = icmp eq ptr %7, null
  br i1 %8, label %9, label %11

9:                                                ; preds = %5
  %10 = tail call ptr @lua_pushstring(ptr noundef %0, ptr noundef nonnull @.str.35) #9
  br label %13

11:                                               ; preds = %5
  %12 = tail call ptr @lua_pushstring(ptr noundef %0, ptr noundef nonnull @.str.36) #9
  br label %13

13:                                               ; preds = %9, %11, %4
  ret i32 1
}